target datalayout = "e-m:e-p270:32:32-p271:32:32-p272:64:64-i64:64-i128:128-f80:128-n8:16:32:64-S128"
target triple = "x86_64-pc-linux-gnu"

%struct.Gia_Man_t_ = type { ptr, ptr, i32, i32, i32, i32, ptr, ptr, i32, i32, i32, ptr, ptr, %struct.Vec_Int_t_, %struct.Vec_Int_t_, i32, i32, i32, %struct.Vec_Int_t_, ptr, ptr, ptr, i32, i32, i32, i32, ptr, ptr, ptr, ptr, ptr, i32, i32, ptr, i32, ptr, ptr, ptr, ptr, ptr, ptr, ptr, ptr, ptr, ptr, ptr, ptr, ptr, ptr, ptr, ptr, ptr, ptr, %struct.Vec_Int_t_, %struct.Vec_Int_t_, ptr, ptr, ptr, ptr, ptr, ptr, ptr, ptr, ptr, ptr, ptr, ptr, ptr, ptr, ptr, ptr, ptr, ptr, ptr, ptr, ptr, i32, float, float, ptr, ptr, i32, ptr, ptr, ptr, ptr, ptr, ptr, ptr, ptr, ptr, ptr, ptr, ptr, ptr, ptr, ptr, i64, i64, ptr, ptr, i32, i32, i32, i32, i32, i32, i32, i32, i32, i32, i32, i32, ptr, ptr, ptr, ptr, ptr, ptr, ptr, ptr, i32, i32, i32, ptr, i32, i32, ptr, ptr, ptr, ptr, ptr, ptr, i32, i32, ptr, %struct.Vec_Int_t_, %struct.Vec_Int_t_, %struct.Vec_Int_t_, ptr, ptr, ptr, i32, i32, i32, i32, ptr, ptr, ptr, ptr, ptr }
%struct.Vec_Int_t_ = type { i32, i32, ptr }

@.str.5 = private unnamed_addr constant [9 x i8] c"mux_tree\00", align 1

; Function Attrs: inlinehint nounwind uwtable
define internal i32 @Abc_Var2Lit(i32 noundef %0, i32 noundef %1) #1 {
  %3 = alloca i32, align 4
  %4 = alloca i32, align 4
  store i32 %0, ptr %3, align 4, !tbaa !8
  store i32 %1, ptr %4, align 4, !tbaa !8
  %5 = load i32, ptr %3, align 4, !tbaa !8
  %6 = load i32, ptr %3, align 4, !tbaa !8
  %7 = add nsw i32 %5, %6
  %8 = load i32, ptr %4, align 4, !tbaa !8
  %9 = add nsw i32 %7, %8
  ret i32 %9
}

; Function Attrs: nounwind uwtable
define ptr @Gia_ManGenPerm(i32 noundef %0) #0 {
  %2 = alloca i32, align 4
  %3 = alloca i32, align 4
  %4 = alloca ptr, align 8
  %5 = alloca i32, align 4
  %6 = alloca i32, align 4
  store i32 %0, ptr %2, align 4, !tbaa !8
  call void @llvm.lifetime.start.p0(i64 4, ptr %3) #12
  call void @llvm.lifetime.start.p0(i64 8, ptr %4) #12
  %7 = load i32, ptr %2, align 4, !tbaa !8
  %8 = sext i32 %7 to i64
  %9 = call noalias ptr @calloc(i64 noundef %8, i64 noundef 4) #16
  store ptr %9, ptr %4, align 8, !tbaa !10
  %10 = call i64 @time(ptr noundef null) #12
  %11 = trunc i64 %10 to i32
  call void @srand(i32 noundef %11) #12
  store i32 0, ptr %3, align 4, !tbaa !8
  br label %12

12:                                               ; preds = %22, %1
  %13 = load i32, ptr %3, align 4, !tbaa !8
  %14 = load i32, ptr %2, align 4, !tbaa !8
  %15 = icmp slt i32 %13, %14
  br i1 %15, label %16, label %25

16:                                               ; preds = %12
  %17 = load i32, ptr %3, align 4, !tbaa !8
  %18 = load ptr, ptr %4, align 8, !tbaa !10
  %19 = load i32, ptr %3, align 4, !tbaa !8
  %20 = sext i32 %19 to i64
  %21 = getelementptr inbounds i32, ptr %18, i64 %20
  store i32 %17, ptr %21, align 4, !tbaa !8
  br label %22

22:                                               ; preds = %16
  %23 = load i32, ptr %3, align 4, !tbaa !8
  %24 = add nsw i32 %23, 1
  store i32 %24, ptr %3, align 4, !tbaa !8
  br label %12, !llvm.loop !75

25:                                               ; preds = %12
  store i32 0, ptr %3, align 4, !tbaa !8
  br label %26

26:                                               ; preds = %53, %25
  %27 = load i32, ptr %3, align 4, !tbaa !8
  %28 = load i32, ptr %2, align 4, !tbaa !8
  %29 = icmp slt i32 %27, %28
  br i1 %29, label %30, label %56

30:                                               ; preds = %26
  call void @llvm.lifetime.start.p0(i64 4, ptr %5) #12
  %31 = call i32 @rand() #12
  %32 = load i32, ptr %2, align 4, !tbaa !8
  %33 = srem i32 %31, %32
  store i32 %33, ptr %5, align 4, !tbaa !8
  call void @llvm.lifetime.start.p0(i64 4, ptr %6) #12
  %34 = load ptr, ptr %4, align 8, !tbaa !10
  %35 = load i32, ptr %3, align 4, !tbaa !8
  %36 = sext i32 %35 to i64
  %37 = getelementptr inbounds i32, ptr %34, i64 %36
  %38 = load i32, ptr %37, align 4, !tbaa !8
  store i32 %38, ptr %6, align 4, !tbaa !8
  %39 = load ptr, ptr %4, align 8, !tbaa !10
  %40 = load i32, ptr %5, align 4, !tbaa !8
  %41 = sext i32 %40 to i64
  %42 = getelementptr inbounds i32, ptr %39, i64 %41
  %43 = load i32, ptr %42, align 4, !tbaa !8
  %44 = load ptr, ptr %4, align 8, !tbaa !10
  %45 = load i32, ptr %3, align 4, !tbaa !8
  %46 = sext i32 %45 to i64
  %47 = getelementptr inbounds i32, ptr %44, i64 %46
  store i32 %43, ptr %47, align 4, !tbaa !8
  %48 = load i32, ptr %6, align 4, !tbaa !8
  %49 = load ptr, ptr %4, align 8, !tbaa !10
  %50 = load i32, ptr %5, align 4, !tbaa !8
  %51 = sext i32 %50 to i64
  %52 = getelementptr inbounds i32, ptr %49, i64 %51
  store i32 %48, ptr %52, align 4, !tbaa !8
  call void @llvm.lifetime.end.p0(i64 4, ptr %6) #12
  call void @llvm.lifetime.end.p0(i64 4, ptr %5) #12
  br label %53

53:                                               ; preds = %30
  %54 = load i32, ptr %3, align 4, !tbaa !8
  %55 = add nsw i32 %54, 1
  store i32 %55, ptr %3, align 4, !tbaa !8
  br label %26, !llvm.loop !76

56:                                               ; preds = %26
  %57 = load ptr, ptr %4, align 8, !tbaa !10
  call void @llvm.lifetime.end.p0(i64 8, ptr %4) #12
  call void @llvm.lifetime.end.p0(i64 4, ptr %3) #12
  ret ptr %57
}

; Function Attrs: inlinehint nounwind uwtable
define internal ptr @Abc_UtilStrsav(ptr noundef %0) #1 {
  %2 = alloca ptr, align 8
  store ptr %0, ptr %2, align 8, !tbaa !68
  %3 = load ptr, ptr %2, align 8, !tbaa !68
  %4 = icmp ne ptr %3, null
  br i1 %4, label %5, label %13

5:                                                ; preds = %1
  %6 = load ptr, ptr %2, align 8, !tbaa !68
  %7 = call i64 @strlen(ptr noundef %6) #15
  %8 = add i64 %7, 1
  %9 = mul i64 1, %8
  %10 = call noalias ptr @malloc(i64 noundef %9) #14
  %11 = load ptr, ptr %2, align 8, !tbaa !68
  %12 = call ptr @strcpy(ptr noundef %10, ptr noundef %11) #12
  br label %14

13:                                               ; preds = %1
  br label %14

14:                                               ; preds = %13, %5
  %15 = phi ptr [ %12, %5 ], [ null, %13 ]
  ret ptr %15
}

; Function Attrs: nounwind uwtable
define ptr @Gia_ManCollectLiterals(i32 noundef %0) #0 {
  %2 = alloca i32, align 4
  %3 = alloca i32, align 4
  %4 = alloca ptr, align 8
  store i32 %0, ptr %2, align 4, !tbaa !8
  call void @llvm.lifetime.start.p0(i64 4, ptr %3) #12
  call void @llvm.lifetime.start.p0(i64 8, ptr %4) #12
  %5 = load i32, ptr %2, align 4, !tbaa !8
  %6 = sext i32 %5 to i64
  %7 = call noalias ptr @calloc(i64 noundef %6, i64 noundef 4) #16
  store ptr %7, ptr %4, align 8, !tbaa !10
  store i32 0, ptr %3, align 4, !tbaa !8
  br label %8

8:                                                ; preds = %20, %1
  %9 = load i32, ptr %3, align 4, !tbaa !8
  %10 = load i32, ptr %2, align 4, !tbaa !8
  %11 = icmp slt i32 %9, %10
  br i1 %11, label %12, label %23

12:                                               ; preds = %8
  %13 = load i32, ptr %3, align 4, !tbaa !8
  %14 = add nsw i32 %13, 1
  %15 = call i32 @Abc_Var2Lit(i32 noundef %14, i32 noundef 0)
  %16 = load ptr, ptr %4, align 8, !tbaa !10
  %17 = load i32, ptr %3, align 4, !tbaa !8
  %18 = sext i32 %17 to i64
  %19 = getelementptr inbounds i32, ptr %16, i64 %18
  store i32 %15, ptr %19, align 4, !tbaa !8
  br label %20

20:                                               ; preds = %12
  %21 = load i32, ptr %3, align 4, !tbaa !8
  %22 = add nsw i32 %21, 1
  store i32 %22, ptr %3, align 4, !tbaa !8
  br label %8, !llvm.loop !74

23:                                               ; preds = %8
  %24 = load ptr, ptr %4, align 8, !tbaa !10
  call void @llvm.lifetime.end.p0(i64 8, ptr %4) #12
  call void @llvm.lifetime.end.p0(i64 4, ptr %3) #12
  ret ptr %24
}

; Function Attrs: nounwind uwtable
define ptr @Gia_ManMuxTreeTest(i32 noundef %0) #0 {
  %2 = alloca i32, align 4
  %3 = alloca ptr, align 8
  %4 = alloca i32, align 4
  %5 = alloca i32, align 4
  %6 = alloca i32, align 4
  %7 = alloca ptr, align 8
  %8 = alloca ptr, align 8
  store i32 %0, ptr %2, align 4, !tbaa !8
  call void @llvm.lifetime.start.p0(i64 8, ptr %3) #12
  call void @llvm.lifetime.start.p0(i64 4, ptr %4) #12
  call void @llvm.lifetime.start.p0(i64 4, ptr %5) #12
  call void @llvm.lifetime.start.p0(i64 4, ptr %6) #12
  %9 = load i32, ptr %2, align 4, !tbaa !8
  %10 = load i32, ptr %2, align 4, !tbaa !8
  %11 = shl i32 1, %10
  %12 = add nsw i32 %9, %11
  store i32 %12, ptr %6, align 4, !tbaa !8
  call void @llvm.lifetime.start.p0(i64 8, ptr %7) #12
  call void @llvm.lifetime.start.p0(i64 8, ptr %8) #12
  %13 = load i32, ptr %6, align 4, !tbaa !8
  %14 = call ptr @Gia_ManCollectLiterals(i32 noundef %13)
  store ptr %14, ptr %8, align 8, !tbaa !10
  %15 = call ptr @Gia_ManStart(i32 noundef 1000)
  store ptr %15, ptr %3, align 8, !tbaa !3
  %16 = call ptr @Abc_UtilStrsav(ptr noundef @.str.5)
  %17 = load ptr, ptr %3, align 8, !tbaa !3
  %18 = getelementptr inbounds nuw %struct.Gia_Man_t_, ptr %17, i32 0, i32 0
  store ptr %16, ptr %18, align 8, !tbaa !63
  store i32 0, ptr %4, align 4, !tbaa !8
  br label %19

19:                                               ; preds = %26, %1
  %20 = load i32, ptr %4, align 4, !tbaa !8
  %21 = load i32, ptr %6, align 4, !tbaa !8
  %22 = icmp slt i32 %20, %21
  br i1 %22, label %23, label %29

23:                                               ; preds = %19
  %24 = load ptr, ptr %3, align 8, !tbaa !3
  %25 = call i32 @Gia_ManAppendCi(ptr noundef %24)
  br label %26

26:                                               ; preds = %23
  %27 = load i32, ptr %4, align 4, !tbaa !8
  %28 = add nsw i32 %27, 1
  store i32 %28, ptr %4, align 4, !tbaa !8
  br label %19, !llvm.loop !94

29:                                               ; preds = %19
  %30 = load ptr, ptr %3, align 8, !tbaa !3
  call void @Gia_ManHashAlloc(ptr noundef %30)
  %31 = load i32, ptr %6, align 4, !tbaa !8
  %32 = call ptr @Gia_ManGenPerm(i32 noundef %31)
  store ptr %32, ptr %7, align 8, !tbaa !10
  %33 = load ptr, ptr %7, align 8, !tbaa !10
  %34 = load i32, ptr %2, align 4, !tbaa !8
  %35 = add nsw i32 %34, 1
  %36 = sext i32 %35 to i64
  %37 = getelementptr inbounds i32, ptr %33, i64 %36
  store i32 100, ptr %37, align 4, !tbaa !8
  %38 = load ptr, ptr %7, align 8, !tbaa !10
  %39 = load i32, ptr %2, align 4, !tbaa !8
  %40 = add nsw i32 %39, 5
  %41 = sext i32 %40 to i64
  %42 = getelementptr inbounds i32, ptr %38, i64 %41
  store i32 100, ptr %42, align 4, !tbaa !8
  %43 = load ptr, ptr %7, align 8, !tbaa !10
  %44 = load i32, ptr %2, align 4, !tbaa !8
  %45 = add nsw i32 %44, 4
  %46 = sext i32 %45 to i64
  %47 = getelementptr inbounds i32, ptr %43, i64 %46
  store i32 100, ptr %47, align 4, !tbaa !8
  %48 = load ptr, ptr %8, align 8, !tbaa !10
  %49 = load i32, ptr %2, align 4, !tbaa !8
  %50 = load ptr, ptr %7, align 8, !tbaa !10
  call void @Gia_ManUsePerm(ptr noundef %48, i32 noundef %49, ptr noundef %50)
  %51 = load ptr, ptr %3, align 8, !tbaa !3
  %52 = load ptr, ptr %8, align 8, !tbaa !10
  %53 = load i32, ptr %2, align 4, !tbaa !8
  %54 = load ptr, ptr %7, align 8, !tbaa !10
  %55 = call i32 @Gia_ManDecomp(ptr noundef %51, ptr noundef %52, i32 noundef %53, ptr noundef %54)
  store i32 %55, ptr %5, align 4, !tbaa !8
  %56 = load ptr, ptr %3, align 8, !tbaa !3
  %57 = load i32, ptr %5, align 4, !tbaa !8
  %58 = call i32 @Gia_ManAppendCo(ptr noundef %56, i32 noundef %57)
  %59 = load ptr, ptr %7, align 8, !tbaa !10
  %60 = icmp ne ptr %59, null
  br i1 %60, label %61, label %63

61:                                               ; preds = %29
  %62 = load ptr, ptr %7, align 8, !tbaa !10
  call void @free(ptr noundef %62) #12
  store ptr null, ptr %7, align 8, !tbaa !10
  br label %64

63:                                               ; preds = %29
  br label %64

64:                                               ; preds = %63, %61
  %65 = load ptr, ptr %8, align 8, !tbaa !10
  %66 = icmp ne ptr %65, null
  br i1 %66, label %67, label %69

67:                                               ; preds = %64
  %68 = load ptr, ptr %8, align 8, !tbaa !10
  call void @free(ptr noundef %68) #12
  store ptr null, ptr %8, align 8, !tbaa !10
  br label %70

69:                                               ; preds = %64
  br label %70

70:                                               ; preds = %69, %67
  %71 = load ptr, ptr %3, align 8, !tbaa !3
  call void @llvm.lifetime.end.p0(i64 8, ptr %8) #12
  call void @llvm.lifetime.end.p0(i64 8, ptr %7) #12
  call void @llvm.lifetime.end.p0(i64 4, ptr %6) #12
  call void @llvm.lifetime.end.p0(i64 4, ptr %5) #12
  call void @llvm.lifetime.end.p0(i64 4, ptr %4) #12
  call void @llvm.lifetime.end.p0(i64 8, ptr %3) #12
  ret ptr %71
}