; Function Attrs: nounwind uwtable
define noundef ptr @Gia_ManMuxTreeTest(i32 noundef %0) local_unnamed_addr #2 {
  %2 = shl nuw i32 1, %0
  %3 = add nsw i32 %2, %0
  %4 = sext i32 %3 to i64
  %5 = tail call noalias ptr @calloc(i64 noundef %4, i64 noundef 4) #28
  %6 = icmp sgt i32 %3, 0
  br i1 %6, label %.lr.ph.preheader.i, label %Gia_ManCollectLiterals.exit

.lr.ph.preheader.i:                               ; preds = %1
  %wide.trip.count.i = zext nneg i32 %3 to i64
  br label %.lr.ph.i

.lr.ph.i:                                         ; preds = %.lr.ph.i, %.lr.ph.preheader.i
  %indvars.iv.i = phi i64 [ 0, %.lr.ph.preheader.i ], [ %indvars.iv.next.i, %.lr.ph.i ]
  %indvars.iv.next.i = add nuw nsw i64 %indvars.iv.i, 1
  %7 = getelementptr inbounds nuw i32, ptr %5, i64 %indvars.iv.i
  %indvars.iv.next.tr.i = trunc i64 %indvars.iv.next.i to i32
  %8 = shl i32 %indvars.iv.next.tr.i, 1
  store i32 %8, ptr %7, align 4, !tbaa !11
  %exitcond.not.i = icmp eq i64 %indvars.iv.next.i, %wide.trip.count.i
  br i1 %exitcond.not.i, label %Gia_ManCollectLiterals.exit, label %.lr.ph.i, !llvm.loop !67

Gia_ManCollectLiterals.exit:                      ; preds = %.lr.ph.i, %1
  %9 = tail call ptr @Gia_ManStart(i32 noundef 1000) #26
  %10 = tail call noalias dereferenceable_or_null(9) ptr @malloc(i64 noundef 9) #25
  tail call void @llvm.memcpy.p0.p0.i64(ptr noundef nonnull align 1 dereferenceable(9) %10, ptr noundef nonnull align 1 dereferenceable(9) @.str.5, i64 9, i1 false) #26
  store ptr %10, ptr %9, align 8, !tbaa !57
  br i1 %6, label %.lr.ph, label %._crit_edge

.lr.ph:                                           ; preds = %Gia_ManCollectLiterals.exit, %.lr.ph
  %.039 = phi i32 [ %12, %.lr.ph ], [ 0, %Gia_ManCollectLiterals.exit ]
  %11 = tail call fastcc i32 @Gia_ManAppendCi(ptr noundef nonnull %9)
  %12 = add nuw nsw i32 %.039, 1
  %exitcond.not = icmp eq i32 %12, %3
  br i1 %exitcond.not, label %._crit_edge, label %.lr.ph, !llvm.loop !85

._crit_edge:                                      ; preds = %.lr.ph, %Gia_ManCollectLiterals.exit
  tail call void @Gia_ManHashAlloc(ptr noundef nonnull %9)
  %13 = tail call noalias ptr @calloc(i64 noundef %4, i64 noundef 4) #28
  %14 = tail call i64 @time(ptr noundef null) #26
  %15 = trunc i64 %14 to i32
  tail call void @srand(i32 noundef %15) #26
  br i1 %6, label %.lr.ph.preheader.i33, label %.loopexit

.lr.ph.preheader.i33:                             ; preds = %._crit_edge
  %wide.trip.count.i34 = zext nneg i32 %3 to i64
  br label %.lr.ph.i35

.lr.ph.i35:                                       ; preds = %.lr.ph.i35, %.lr.ph.preheader.i33
  %indvars.iv.i36 = phi i64 [ 0, %.lr.ph.preheader.i33 ], [ %indvars.iv.next.i37, %.lr.ph.i35 ]
  %16 = getelementptr inbounds nuw i32, ptr %13, i64 %indvars.iv.i36
  %17 = trunc nuw nsw i64 %indvars.iv.i36 to i32
  store i32 %17, ptr %16, align 4, !tbaa !11
  %indvars.iv.next.i37 = add nuw nsw i64 %indvars.iv.i36, 1
  %exitcond.not.i38 = icmp eq i64 %indvars.iv.next.i37, %wide.trip.count.i34
  br i1 %exitcond.not.i38, label %.lr.ph23.i, label %.lr.ph.i35, !llvm.loop !68

.lr.ph23.i:                                       ; preds = %.lr.ph.i35, %.lr.ph23.i
  %indvars.iv25.i = phi i64 [ %indvars.iv.next26.i, %.lr.ph23.i ], [ 0, %.lr.ph.i35 ]
  %18 = tail call i32 @rand() #26
  %19 = srem i32 %18, %3
  %20 = getelementptr inbounds nuw i32, ptr %13, i64 %indvars.iv25.i
  %21 = load i32, ptr %20, align 4, !tbaa !11
  %22 = sext i32 %19 to i64
  %23 = getelementptr inbounds i32, ptr %13, i64 %22
  %24 = load i32, ptr %23, align 4, !tbaa !11
  store i32 %24, ptr %20, align 4, !tbaa !11
  store i32 %21, ptr %23, align 4, !tbaa !11
  %indvars.iv.next26.i = add nuw nsw i64 %indvars.iv25.i, 1
  %exitcond29.not.i = icmp eq i64 %indvars.iv.next26.i, %wide.trip.count.i34
  br i1 %exitcond29.not.i, label %.loopexit, label %.lr.ph23.i, !llvm.loop !69

.loopexit:                                        ; preds = %.lr.ph23.i, %._crit_edge
  %25 = sext i32 %0 to i64
  %26 = getelementptr i32, ptr %13, i64 %25
  %27 = getelementptr i8, ptr %26, i64 4
  store i32 100, ptr %27, align 4, !tbaa !11
  %28 = getelementptr i8, ptr %26, i64 20
  store i32 100, ptr %28, align 4, !tbaa !11
  %29 = getelementptr i8, ptr %26, i64 16
  store i32 100, ptr %29, align 4, !tbaa !11
  tail call void @Gia_ManUsePerm(ptr noundef %5, i32 noundef %0, ptr noundef %13)
  %30 = tail call i32 @Gia_ManDecomp(ptr noundef nonnull %9, ptr noundef %5, i32 noundef %0, ptr noundef %13)
  %31 = tail call fastcc i32 @Gia_ManAppendCo(ptr noundef nonnull %9, i32 noundef %30)
  tail call void @free(ptr noundef %13) #26
  %.not32 = icmp eq ptr %5, null
  br i1 %.not32, label %33, label %32

32:                                               ; preds = %.loopexit
  tail call void @free(ptr noundef nonnull %5) #26
  br label %33

33:                                               ; preds = %.loopexit, %32
  ret ptr %9
}